target datalayout = "e-m:e-p270:32:32-p271:32:32-p272:64:64-i64:64-i128:128-f80:128-n8:16:32:64-S128"
target triple = "x86_64-pc-linux-gnu"

%struct.ARKodeMemRec = type { ptr, double, ptr, i32, i32, double, double, ptr, i32, double, ptr, i32, i32, ptr, ptr, i32, ptr, ptr, i32, ptr, ptr, ptr, ptr, ptr, ptr, ptr, ptr, ptr, ptr, ptr, ptr, ptr, ptr, ptr, i32, ptr, ptr, i32, ptr, i32, ptr, ptr, ptr, ptr, ptr, ptr, ptr, ptr, ptr, ptr, ptr, ptr, ptr, ptr, ptr, ptr, ptr, ptr, ptr, ptr, ptr, ptr, ptr, ptr, ptr, ptr, i32, ptr, ptr, ptr, ptr, ptr, ptr, ptr, i32, ptr, ptr, ptr, i32, ptr, ptr, ptr, ptr, ptr, ptr, ptr, i32, i32, i32, i32, double, double, double, double, double, double, double, double, double, double, i32, ptr, i64, i32, i32, i32, i32, i64, i64, i32, i64, i64, i64, i64, i64, i64, i64, double, double, double, double, double, i32, double, double, i32, i32, i32, i32, i32, i32, i32, i32, ptr, i32, ptr, ptr, ptr, ptr, i32, i32, i32 }
%struct.ARKBBDPrecDataRec = type { i64, i64, i64, i64, double, ptr, ptr, ptr, ptr, ptr, ptr, ptr, ptr, ptr, ptr, i64, i64, i64, i64, ptr }
%struct.ARKLsMemRec = type { i32, i32, i32, ptr, ptr, i32, i32, double, double, ptr, ptr, ptr, ptr, ptr, ptr, ptr, i64, double, i64, i64, i64, i64, i64, i64, i64, i64, i64, double, ptr, ptr, ptr, ptr, i32, ptr, ptr, ptr, ptr, i32, ptr, ptr, i32 }

; Function Attrs: nounwind uwtable
define internal i32 @ARKBBDPrecFree(ptr noundef %0) #0 {
  %2 = alloca i32, align 4
  %3 = alloca ptr, align 8
  %4 = alloca ptr, align 8
  %5 = alloca ptr, align 8
  %6 = alloca ptr, align 8
  %7 = alloca i32, align 4
  store ptr %0, ptr %3, align 8, !tbaa !13
  call void @llvm.lifetime.start.p0(i64 8, ptr %4) #6
  call void @llvm.lifetime.start.p0(i64 8, ptr %5) #6
  call void @llvm.lifetime.start.p0(i64 8, ptr %6) #6
  %8 = load ptr, ptr %3, align 8, !tbaa !13
  %9 = icmp eq ptr %8, null
  br i1 %9, label %10, label %11

10:                                               ; preds = %1
  store i32 0, ptr %2, align 4
  store i32 1, ptr %7, align 4
  br label %57

11:                                               ; preds = %1
  %12 = load ptr, ptr %3, align 8, !tbaa !13
  %13 = getelementptr inbounds nuw %struct.ARKodeMemRec, ptr %12, i32 0, i32 42
  %14 = load ptr, ptr %13, align 8, !tbaa !71
  %15 = load ptr, ptr %3, align 8, !tbaa !13
  %16 = call ptr %14(ptr noundef %15)
  store ptr %16, ptr %5, align 8, !tbaa !3
  %17 = load ptr, ptr %5, align 8, !tbaa !3
  %18 = icmp eq ptr %17, null
  br i1 %18, label %19, label %20

19:                                               ; preds = %11
  store i32 0, ptr %2, align 4
  store i32 1, ptr %7, align 4
  br label %57

20:                                               ; preds = %11
  %21 = load ptr, ptr %5, align 8, !tbaa !3
  store ptr %21, ptr %4, align 8, !tbaa !66
  %22 = load ptr, ptr %4, align 8, !tbaa !66
  %23 = getelementptr inbounds nuw %struct.ARKLsMemRec, ptr %22, i32 0, i32 31
  %24 = load ptr, ptr %23, align 8, !tbaa !70
  %25 = icmp eq ptr %24, null
  br i1 %25, label %26, label %27

26:                                               ; preds = %20
  store i32 0, ptr %2, align 4
  store i32 1, ptr %7, align 4
  br label %57

27:                                               ; preds = %20
  %28 = load ptr, ptr %4, align 8, !tbaa !66
  %29 = getelementptr inbounds nuw %struct.ARKLsMemRec, ptr %28, i32 0, i32 31
  %30 = load ptr, ptr %29, align 8, !tbaa !70
  store ptr %30, ptr %6, align 8, !tbaa !28
  %31 = load ptr, ptr %6, align 8, !tbaa !28
  %32 = getelementptr inbounds nuw %struct.ARKBBDPrecDataRec, ptr %31, i32 0, i32 9
  %33 = load ptr, ptr %32, align 8, !tbaa !48
  %34 = call i32 @SUNLinSolFree(ptr noundef %33)
  %35 = load ptr, ptr %3, align 8, !tbaa !13
  %36 = load ptr, ptr %6, align 8, !tbaa !28
  %37 = getelementptr inbounds nuw %struct.ARKBBDPrecDataRec, ptr %36, i32 0, i32 10
  call void @arkFreeVec(ptr noundef %35, ptr noundef %37)
  %38 = load ptr, ptr %3, align 8, !tbaa !13
  %39 = load ptr, ptr %6, align 8, !tbaa !28
  %40 = getelementptr inbounds nuw %struct.ARKBBDPrecDataRec, ptr %39, i32 0, i32 11
  call void @arkFreeVec(ptr noundef %38, ptr noundef %40)
  %41 = load ptr, ptr %3, align 8, !tbaa !13
  %42 = load ptr, ptr %6, align 8, !tbaa !28
  %43 = getelementptr inbounds nuw %struct.ARKBBDPrecDataRec, ptr %42, i32 0, i32 12
  call void @arkFreeVec(ptr noundef %41, ptr noundef %43)
  %44 = load ptr, ptr %6, align 8, !tbaa !28
  %45 = getelementptr inbounds nuw %struct.ARKBBDPrecDataRec, ptr %44, i32 0, i32 13
  %46 = load ptr, ptr %45, align 8, !tbaa !43
  call void @N_VDestroy(ptr noundef %46)
  %47 = load ptr, ptr %6, align 8, !tbaa !28
  %48 = getelementptr inbounds nuw %struct.ARKBBDPrecDataRec, ptr %47, i32 0, i32 14
  %49 = load ptr, ptr %48, align 8, !tbaa !44
  call void @N_VDestroy(ptr noundef %49)
  %50 = load ptr, ptr %6, align 8, !tbaa !28
  %51 = getelementptr inbounds nuw %struct.ARKBBDPrecDataRec, ptr %50, i32 0, i32 8
  %52 = load ptr, ptr %51, align 8, !tbaa !42
  call void @SUNMatDestroy(ptr noundef %52)
  %53 = load ptr, ptr %6, align 8, !tbaa !28
  %54 = getelementptr inbounds nuw %struct.ARKBBDPrecDataRec, ptr %53, i32 0, i32 7
  %55 = load ptr, ptr %54, align 8, !tbaa !41
  call void @SUNMatDestroy(ptr noundef %55)
  %56 = load ptr, ptr %6, align 8, !tbaa !28
  call void @free(ptr noundef %56) #6
  store ptr null, ptr %6, align 8, !tbaa !28
  store i32 0, ptr %2, align 4
  store i32 1, ptr %7, align 4
  br label %57

57:                                               ; preds = %27, %26, %19, %10
  call void @llvm.lifetime.end.p0(i64 8, ptr %6) #6
  call void @llvm.lifetime.end.p0(i64 8, ptr %5) #6
  call void @llvm.lifetime.end.p0(i64 8, ptr %4) #6
  %58 = load i32, ptr %2, align 4
  ret i32 %58
}