; Function Attrs: nounwind uwtable
define internal noundef i32 @ARKBBDPrecFree(ptr noundef %0) #0 {
  %2 = icmp eq ptr %0, null
  br i1 %2, label %27, label %3

3:                                                ; preds = %1
  %4 = getelementptr inbounds nuw i8, ptr %0, i64 320
  %5 = load ptr, ptr %4, align 8, !tbaa !67
  %6 = tail call ptr %5(ptr noundef nonnull %0) #9
  %7 = icmp eq ptr %6, null
  br i1 %7, label %27, label %8

8:                                                ; preds = %3
  %9 = getelementptr inbounds nuw i8, ptr %6, i64 232
  %10 = load ptr, ptr %9, align 8, !tbaa !66
  %11 = icmp eq ptr %10, null
  br i1 %11, label %27, label %12

12:                                               ; preds = %8
  %13 = getelementptr inbounds nuw i8, ptr %10, i64 72
  %14 = load ptr, ptr %13, align 8, !tbaa !42
  %15 = tail call i32 @SUNLinSolFree(ptr noundef %14) #9
  %16 = getelementptr inbounds nuw i8, ptr %10, i64 80
  tail call void @arkFreeVec(ptr noundef nonnull %0, ptr noundef nonnull %16) #9
  %17 = getelementptr inbounds nuw i8, ptr %10, i64 88
  tail call void @arkFreeVec(ptr noundef nonnull %0, ptr noundef nonnull %17) #9
  %18 = getelementptr inbounds nuw i8, ptr %10, i64 96
  tail call void @arkFreeVec(ptr noundef nonnull %0, ptr noundef nonnull %18) #9
  %19 = getelementptr inbounds nuw i8, ptr %10, i64 104
  %20 = load ptr, ptr %19, align 8, !tbaa !37
  tail call void @N_VDestroy(ptr noundef %20) #9
  %21 = getelementptr inbounds nuw i8, ptr %10, i64 112
  %22 = load ptr, ptr %21, align 8, !tbaa !38
  tail call void @N_VDestroy(ptr noundef %22) #9
  %23 = getelementptr inbounds nuw i8, ptr %10, i64 64
  %24 = load ptr, ptr %23, align 8, !tbaa !36
  tail call void @SUNMatDestroy(ptr noundef %24) #9
  %25 = getelementptr inbounds nuw i8, ptr %10, i64 56
  %26 = load ptr, ptr %25, align 8, !tbaa !35
  tail call void @SUNMatDestroy(ptr noundef %26) #9
  tail call void @free(ptr noundef nonnull %10) #9
  br label %27

27:                                               ; preds = %8, %3, %1, %12
  ret i32 0
}